; Function Attrs: mustprogress uwtable
define void @_ZN5folly13MemoryMappingC2ENS_4FileEllNS0_7OptionsE(ptr noundef nonnull align 8 dereferenceable(72) %0, ptr noundef nonnull %1, i64 noundef %2, i64 noundef %3, ptr noundef readonly byval(%"struct.folly::MemoryMapping::Options") align 8 captures(none) %4) unnamed_addr #7 align 2 personality ptr @__gxx_personality_v0 {
  %6 = alloca %"class.google::LogMessageFatal", align 8
  tail call void @_ZN5folly4FileC1EOS0_(ptr noundef nonnull align 4 dereferenceable(5) %0, ptr noundef nonnull align 4 dereferenceable(5) %1) #20
  %7 = getelementptr inbounds nuw i8, ptr %0, i64 8
  %8 = getelementptr inbounds nuw i8, ptr %0, i64 24
  tail call void @llvm.memset.p0.i64(ptr noundef nonnull align 8 dereferenceable(16) %7, i8 0, i64 16, i1 false)
  call void @llvm.memcpy.p0.p0.i64(ptr noundef nonnull align 8 dereferenceable(24) %8, ptr noundef nonnull align 8 dereferenceable(24) %4, i64 24, i1 false), !tbaa.struct !29
  %9 = getelementptr inbounds nuw i8, ptr %0, i64 48
  store i8 0, ptr %9, align 8, !tbaa !23
  %10 = getelementptr inbounds nuw i8, ptr %0, i64 56
  tail call void @llvm.memset.p0.i64(ptr noundef nonnull align 8 dereferenceable(16) %10, i8 0, i64 16, i1 false)
  %11 = load i32, ptr %0, align 8, !tbaa !7
  %.not = icmp eq i32 %11, -1
  br i1 %.not, label %12, label %.critedge, !prof !34

12:                                               ; preds = %5
  call void @llvm.lifetime.start.p0(i64 16, ptr nonnull %6) #20
  invoke void @_ZN6google15LogMessageFatalC1EPKci(ptr noundef nonnull align 8 dereferenceable(16) %6, ptr noundef nonnull @.str.7, i32 noundef 77)
          to label %13 unwind label %19

13:                                               ; preds = %12
  %14 = invoke noundef nonnull align 8 dereferenceable(8) ptr @_ZN6google10LogMessage6streamEv(ptr noundef nonnull align 8 dereferenceable(16) %6)
          to label %15 unwind label %21

15:                                               ; preds = %13
  %16 = invoke noundef nonnull align 8 dereferenceable(8) ptr @_ZSt16__ostream_insertIcSt11char_traitsIcEERSt13basic_ostreamIT_T0_ES6_PKS3_l(ptr noundef nonnull align 8 dereferenceable(8) %14, ptr noundef nonnull @.str.8, i64 noundef 20)
          to label %_ZStlsISt11char_traitsIcEERSt13basic_ostreamIcT_ES5_PKc.exit unwind label %21

_ZStlsISt11char_traitsIcEERSt13basic_ostreamIcT_ES5_PKc.exit: ; preds = %15
  call void @_ZN6google15LogMessageFatalD1Ev(ptr noundef nonnull align 8 dereferenceable(16) %6) #21
  unreachable

17:                                               ; preds = %.critedge
  %18 = landingpad { ptr, i32 }
          cleanup
  br label %24

19:                                               ; preds = %12
  %20 = landingpad { ptr, i32 }
          cleanup
  call void @llvm.lifetime.end.p0(i64 16, ptr nonnull %6) #20
  br label %24

21:                                               ; preds = %15, %13
  %22 = landingpad { ptr, i32 }
          cleanup
  call void @_ZN6google15LogMessageFatalD1Ev(ptr noundef nonnull align 8 dereferenceable(16) %6) #21
  unreachable

.critedge:                                        ; preds = %5
  invoke void @_ZN5folly13MemoryMapping4initEll(ptr noundef nonnull align 8 dereferenceable(72) %0, i64 noundef %2, i64 noundef %3)
          to label %23 unwind label %17

23:                                               ; preds = %.critedge
  ret void

24:                                               ; preds = %19, %17
  %.pn = phi { ptr, i32 } [ %18, %17 ], [ %20, %19 ]
  call void @_ZN5folly4FileD1Ev(ptr noundef nonnull align 4 dereferenceable(5) %0) #20
  resume { ptr, i32 } %.pn
}